target datalayout = "e-m:e-p270:32:32-p271:32:32-p272:64:64-i64:64-i128:128-f80:128-n8:16:32:64-S128"
target triple = "x86_64-unknown-linux-gnu"

%struct.BlockDriverState = type { i32, i8, i8, i8, i8, i8, ptr, ptr, ptr, %struct.anon, i8, [4096 x i8], [4096 x i8], [4096 x i8], [16 x i8], ptr, [4096 x i8], %struct.BlockLimits, i32, i32, i32, i32, [32 x i8], %union.anon, %union.anon.0, %union.anon.1, i32, [16 x %struct.anon.2], ptr, %struct.anon.3, ptr, ptr, %struct.anon.4, ptr, ptr, i32, ptr, i64, i64, %struct.QemuMutex, %struct.anon.5, %struct.Stat64, i32, i32, i32, i32, i32, i32, %struct.QemuMutex, %struct.anon.6, %struct.CoQueue, i8, i32, i8, %struct.CoMutex, ptr, ptr }
%struct.anon = type { ptr }
%struct.BlockLimits = type { i32, i64, i32, i64, i32, i32, i32, i64, i32, i64, i64, i32, i8, i32, i32, i32, i32, i32, i32, i32 }
%union.anon = type { %struct.QTailQLink }
%struct.QTailQLink = type { ptr, ptr }
%union.anon.0 = type { %struct.QTailQLink }
%union.anon.1 = type { %struct.QTailQLink }
%struct.anon.2 = type { ptr }
%struct.anon.3 = type { ptr }
%struct.anon.4 = type { ptr }
%struct.anon.5 = type { ptr }
%struct.Stat64 = type { i64 }
%struct.QemuMutex = type { %union.pthread_mutex_t, i8 }
%union.pthread_mutex_t = type { %struct.__pthread_mutex_s }
%struct.__pthread_mutex_s = type { i32, i32, i32, i32, i32, i16, i16, %struct.__pthread_internal_list }
%struct.__pthread_internal_list = type { ptr, ptr }
%struct.anon.6 = type { ptr }
%struct.CoQueue = type { %struct.anon.7 }
%struct.anon.7 = type { ptr, ptr }
%struct.CoMutex = type { i32, ptr, %struct.anon.8, %struct.anon.8, i32, i32, ptr }
%struct.anon.8 = type { ptr }
%struct.BDRVQcow2State = type { i32, i32, i32, i32, i32, i32, i32, i32, i32, i32, i32, i32, i32, i32, i64, i64, ptr, ptr, ptr, ptr, i32, %struct.anon.9, ptr, i64, i32, i32, i64, i64, %struct.CoMutex, %struct.Qcow2CryptoHeaderExtension, ptr, ptr, i8, i32, i64, i32, i32, ptr, i32, i64, i64, i32, i32, i8, i32, i32, i64, ptr, ptr, [5 x i8], i8, i32, i8, i64, i64, i64, i64, ptr, %struct.anon.10, %union.anon.11, i8, ptr, ptr, ptr, %struct.CoQueue, i32, ptr, i8, i8, i32 }
%struct.anon.9 = type { ptr }
%struct.Qcow2CryptoHeaderExtension = type { i64, i64 }
%struct.anon.10 = type { ptr }
%union.anon.11 = type { %struct.QTailQLink }
%struct.BdrvChild = type { ptr, ptr, ptr, i32, ptr, i64, i64, i8, i8, %struct.anon.12, %struct.anon.13 }
%struct.anon.12 = type { ptr, ptr }
%struct.anon.13 = type { ptr, ptr }
%struct.BdrvCheckResult = type { i32, i32, i32, i32, i32, i64, %struct.BlockFragInfo }
%struct.BlockFragInfo = type { i64, i64, i64, i64 }

@stderr = external global ptr, align 8
@.str.23 = private unnamed_addr constant [116 x i8] c"ERROR: counting reference for region exceeding the end of the file by one cluster or more: offset 0x%lx size 0x%lx\0A\00", align 1
@.str.24 = private unnamed_addr constant [38 x i8] c"ERROR: overflow cluster offset=0x%lx\0A\00", align 1
@.str.25 = private unnamed_addr constant [142 x i8] c"Use qemu-img amend to increase the refcount entry width or qemu-img convert to create a clean copy if the image cannot be opened for writing\0A\00", align 1

; Function Attrs: nounwind sspstrong uwtable
define internal i64 @start_of_cluster(ptr noundef %s, i64 noundef %offset) #0 {
entry:
  %s.addr = alloca ptr, align 8
  %offset.addr = alloca i64, align 8
  store ptr %s, ptr %s.addr, align 8
  store i64 %offset, ptr %offset.addr, align 8
  %0 = load i64, ptr %offset.addr, align 8
  %1 = load ptr, ptr %s.addr, align 8
  %cluster_size = getelementptr inbounds %struct.BDRVQcow2State, ptr %1, i32 0, i32 1
  %2 = load i32, ptr %cluster_size, align 4
  %sub = sub i32 %2, 1
  %not = xor i32 %sub, -1
  %conv = sext i32 %not to i64
  %and = and i64 %0, %conv
  ret i64 %and
}

; Function Attrs: nounwind sspstrong uwtable
define dso_local i32 @qcow2_inc_refcounts_imrt(ptr noundef %bs, ptr noundef %res, ptr noundef %refcount_table, ptr noundef %refcount_table_size, i64 noundef %offset, i64 noundef %size) #0 {
entry:
  %retval = alloca i32, align 4
  %bs.addr = alloca ptr, align 8
  %res.addr = alloca ptr, align 8
  %refcount_table.addr = alloca ptr, align 8
  %refcount_table_size.addr = alloca ptr, align 8
  %offset.addr = alloca i64, align 8
  %size.addr = alloca i64, align 8
  %s = alloca ptr, align 8
  %start = alloca i64, align 8
  %last = alloca i64, align 8
  %cluster_offset = alloca i64, align 8
  %k = alloca i64, align 8
  %refcount = alloca i64, align 8
  %file_len = alloca i64, align 8
  %ret = alloca i32, align 4
  store ptr %bs, ptr %bs.addr, align 8
  store ptr %res, ptr %res.addr, align 8
  store ptr %refcount_table, ptr %refcount_table.addr, align 8
  store ptr %refcount_table_size, ptr %refcount_table_size.addr, align 8
  store i64 %offset, ptr %offset.addr, align 8
  store i64 %size, ptr %size.addr, align 8
  %0 = load ptr, ptr %bs.addr, align 8
  %opaque = getelementptr inbounds %struct.BlockDriverState, ptr %0, i32 0, i32 7
  %1 = load ptr, ptr %opaque, align 8
  store ptr %1, ptr %s, align 8
  %2 = load i64, ptr %size.addr, align 8
  %cmp = icmp sle i64 %2, 0
  br i1 %cmp, label %if.then, label %if.end

if.then:                                          ; preds = %entry
  store i32 0, ptr %retval, align 4
  br label %return

if.end:                                           ; preds = %entry
  %3 = load ptr, ptr %bs.addr, align 8
  %file = getelementptr inbounds %struct.BlockDriverState, ptr %3, i32 0, i32 31
  %4 = load ptr, ptr %file, align 8
  %bs1 = getelementptr inbounds %struct.BdrvChild, ptr %4, i32 0, i32 0
  %5 = load ptr, ptr %bs1, align 8
  %call = call i64 @bdrv_co_getlength(ptr noundef %5)
  store i64 %call, ptr %file_len, align 8
  %6 = load i64, ptr %file_len, align 8
  %cmp2 = icmp slt i64 %6, 0
  br i1 %cmp2, label %if.then3, label %if.end4

if.then3:                                         ; preds = %if.end
  %7 = load i64, ptr %file_len, align 8
  %conv = trunc i64 %7 to i32
  store i32 %conv, ptr %retval, align 4
  br label %return

if.end4:                                          ; preds = %if.end
  %8 = load i64, ptr %offset.addr, align 8
  %9 = load i64, ptr %size.addr, align 8
  %add = add i64 %8, %9
  %10 = load i64, ptr %file_len, align 8
  %sub = sub i64 %add, %10
  %11 = load ptr, ptr %s, align 8
  %cluster_size = getelementptr inbounds %struct.BDRVQcow2State, ptr %11, i32 0, i32 1
  %12 = load i32, ptr %cluster_size, align 4
  %conv5 = sext i32 %12 to i64
  %cmp6 = icmp sge i64 %sub, %conv5
  br i1 %cmp6, label %if.then8, label %if.end10

if.then8:                                         ; preds = %if.end4
  %13 = load ptr, ptr @stderr, align 8
  %14 = load i64, ptr %offset.addr, align 8
  %15 = load i64, ptr %size.addr, align 8
  %call9 = call i32 (ptr, ptr, ...) @fprintf(ptr noundef %13, ptr noundef @.str.23, i64 noundef %14, i64 noundef %15)
  %16 = load ptr, ptr %res.addr, align 8
  %corruptions = getelementptr inbounds %struct.BdrvCheckResult, ptr %16, i32 0, i32 0
  %17 = load i32, ptr %corruptions, align 8
  %inc = add i32 %17, 1
  store i32 %inc, ptr %corruptions, align 8
  store i32 0, ptr %retval, align 4
  br label %return

if.end10:                                         ; preds = %if.end4
  %18 = load ptr, ptr %s, align 8
  %19 = load i64, ptr %offset.addr, align 8
  %call11 = call i64 @start_of_cluster(ptr noundef %18, i64 noundef %19)
  store i64 %call11, ptr %start, align 8
  %20 = load ptr, ptr %s, align 8
  %21 = load i64, ptr %offset.addr, align 8
  %22 = load i64, ptr %size.addr, align 8
  %add12 = add i64 %21, %22
  %sub13 = sub i64 %add12, 1
  %call14 = call i64 @start_of_cluster(ptr noundef %20, i64 noundef %sub13)
  store i64 %call14, ptr %last, align 8
  %23 = load i64, ptr %start, align 8
  store i64 %23, ptr %cluster_offset, align 8
  br label %for.cond

for.cond:                                         ; preds = %for.inc, %if.end10
  %24 = load i64, ptr %cluster_offset, align 8
  %25 = load i64, ptr %last, align 8
  %cmp15 = icmp ule i64 %24, %25
  br i1 %cmp15, label %for.body, label %for.end

for.body:                                         ; preds = %for.cond
  %26 = load i64, ptr %cluster_offset, align 8
  %27 = load ptr, ptr %s, align 8
  %cluster_bits = getelementptr inbounds %struct.BDRVQcow2State, ptr %27, i32 0, i32 0
  %28 = load i32, ptr %cluster_bits, align 8
  %sh_prom = zext i32 %28 to i64
  %shr = lshr i64 %26, %sh_prom
  store i64 %shr, ptr %k, align 8
  %29 = load i64, ptr %k, align 8
  %30 = load ptr, ptr %refcount_table_size.addr, align 8
  %31 = load i64, ptr %30, align 8
  %cmp17 = icmp uge i64 %29, %31
  br i1 %cmp17, label %if.then19, label %if.end27

if.then19:                                        ; preds = %for.body
  %32 = load ptr, ptr %s, align 8
  %33 = load ptr, ptr %refcount_table.addr, align 8
  %34 = load ptr, ptr %refcount_table_size.addr, align 8
  %35 = load i64, ptr %k, align 8
  %add20 = add i64 %35, 1
  %call21 = call i32 @realloc_refcount_array(ptr noundef %32, ptr noundef %33, ptr noundef %34, i64 noundef %add20)
  store i32 %call21, ptr %ret, align 4
  %36 = load i32, ptr %ret, align 4
  %cmp22 = icmp slt i32 %36, 0
  br i1 %cmp22, label %if.then24, label %if.end26

if.then24:                                        ; preds = %if.then19
  %37 = load ptr, ptr %res.addr, align 8
  %check_errors = getelementptr inbounds %struct.BdrvCheckResult, ptr %37, i32 0, i32 2
  %38 = load i32, ptr %check_errors, align 8
  %inc25 = add i32 %38, 1
  store i32 %inc25, ptr %check_errors, align 8
  %39 = load i32, ptr %ret, align 4
  store i32 %39, ptr %retval, align 4
  br label %return

if.end26:                                         ; preds = %if.then19
  br label %if.end27

if.end27:                                         ; preds = %if.end26, %for.body
  %40 = load ptr, ptr %s, align 8
  %get_refcount = getelementptr inbounds %struct.BDRVQcow2State, ptr %40, i32 0, i32 47
  %41 = load ptr, ptr %get_refcount, align 8
  %42 = load ptr, ptr %refcount_table.addr, align 8
  %43 = load ptr, ptr %42, align 8
  %44 = load i64, ptr %k, align 8
  %call28 = call i64 %41(ptr noundef %43, i64 noundef %44)
  store i64 %call28, ptr %refcount, align 8
  %45 = load i64, ptr %refcount, align 8
  %46 = load ptr, ptr %s, align 8
  %refcount_max = getelementptr inbounds %struct.BDRVQcow2State, ptr %46, i32 0, i32 46
  %47 = load i64, ptr %refcount_max, align 8
  %cmp29 = icmp eq i64 %45, %47
  br i1 %cmp29, label %if.then31, label %if.end36

if.then31:                                        ; preds = %if.end27
  %48 = load ptr, ptr @stderr, align 8
  %49 = load i64, ptr %cluster_offset, align 8
  %call32 = call i32 (ptr, ptr, ...) @fprintf(ptr noundef %48, ptr noundef @.str.24, i64 noundef %49)
  %50 = load ptr, ptr @stderr, align 8
  %call33 = call i32 (ptr, ptr, ...) @fprintf(ptr noundef %50, ptr noundef @.str.25)
  %51 = load ptr, ptr %res.addr, align 8
  %corruptions34 = getelementptr inbounds %struct.BdrvCheckResult, ptr %51, i32 0, i32 0
  %52 = load i32, ptr %corruptions34, align 8
  %inc35 = add i32 %52, 1
  store i32 %inc35, ptr %corruptions34, align 8
  br label %for.inc

if.end36:                                         ; preds = %if.end27
  %53 = load ptr, ptr %s, align 8
  %set_refcount = getelementptr inbounds %struct.BDRVQcow2State, ptr %53, i32 0, i32 48
  %54 = load ptr, ptr %set_refcount, align 8
  %55 = load ptr, ptr %refcount_table.addr, align 8
  %56 = load ptr, ptr %55, align 8
  %57 = load i64, ptr %k, align 8
  %58 = load i64, ptr %refcount, align 8
  %add37 = add i64 %58, 1
  call void %54(ptr noundef %56, i64 noundef %57, i64 noundef %add37)
  br label %for.inc

for.inc:                                          ; preds = %if.end36, %if.then31
  %59 = load ptr, ptr %s, align 8
  %cluster_size38 = getelementptr inbounds %struct.BDRVQcow2State, ptr %59, i32 0, i32 1
  %60 = load i32, ptr %cluster_size38, align 4
  %conv39 = sext i32 %60 to i64
  %61 = load i64, ptr %cluster_offset, align 8
  %add40 = add i64 %61, %conv39
  store i64 %add40, ptr %cluster_offset, align 8
  br label %for.cond, !llvm.loop !26

for.end:                                          ; preds = %for.cond
  store i32 0, ptr %retval, align 4
  br label %return

return:                                           ; preds = %for.end, %if.then24, %if.then8, %if.then3, %if.then
  %62 = load i32, ptr %retval, align 4
  ret i32 %62
}