; Function Attrs: nounwind sspstrong uwtable
define dso_local i32 @qcow2_inc_refcounts_imrt(ptr noundef readonly captures(none) %bs, ptr noundef captures(none) %res, ptr noundef captures(none) %refcount_table, ptr noundef captures(none) %refcount_table_size, i64 noundef %offset, i64 noundef %size) #0 {
entry:
  %opaque = getelementptr inbounds nuw i8, ptr %bs, i64 24
  %0 = load ptr, ptr %opaque, align 8
  %cmp = icmp slt i64 %size, 1
  br i1 %cmp, label %return, label %if.end

if.end:                                           ; preds = %entry
  %file = getelementptr inbounds nuw i8, ptr %bs, i64 16840
  %1 = load ptr, ptr %file, align 8
  %2 = load ptr, ptr %1, align 8
  %call = tail call i64 @bdrv_co_getlength(ptr noundef %2) #17
  %cmp2 = icmp slt i64 %call, 0
  br i1 %cmp2, label %if.then3, label %if.end4

if.then3:                                         ; preds = %if.end
  %conv = trunc i64 %call to i32
  br label %return

if.end4:                                          ; preds = %if.end
  %add = add i64 %size, %offset
  %sub = sub i64 %add, %call
  %cluster_size = getelementptr inbounds nuw i8, ptr %0, i64 4
  %3 = load i32, ptr %cluster_size, align 4
  %conv5 = sext i32 %3 to i64
  %cmp6.not = icmp slt i64 %sub, %conv5
  br i1 %cmp6.not, label %if.end10, label %if.then8

if.then8:                                         ; preds = %if.end4
  %4 = load ptr, ptr @stderr, align 8
  %call9 = tail call i32 (ptr, ptr, ...) @fprintf(ptr noundef %4, ptr noundef nonnull @.str.23, i64 noundef %offset, i64 noundef %size) #19
  %5 = load i32, ptr %res, align 8
  %inc = add i32 %5, 1
  store i32 %inc, ptr %res, align 8
  br label %return

if.end10:                                         ; preds = %if.end4
  %not.i = sub i32 0, %3
  %conv.i = sext i32 %not.i to i64
  %and.i = and i64 %offset, %conv.i
  %sub13 = add i64 %add, -1
  %and.i34 = and i64 %sub13, %conv.i
  %cmp15.not35 = icmp ugt i64 %and.i, %and.i34
  br i1 %cmp15.not35, label %return, label %for.body.lr.ph

for.body.lr.ph:                                   ; preds = %if.end10
  %get_refcount = getelementptr inbounds nuw i8, ptr %0, i64 328
  %refcount_max = getelementptr inbounds nuw i8, ptr %0, i64 320
  %set_refcount = getelementptr inbounds nuw i8, ptr %0, i64 336
  br label %for.body

for.body:                                         ; preds = %for.body.lr.ph, %for.inc
  %cluster_offset.036 = phi i64 [ %and.i, %for.body.lr.ph ], [ %add40, %for.inc ]
  %6 = load i32, ptr %0, align 8
  %sh_prom = zext nneg i32 %6 to i64
  %shr = lshr i64 %cluster_offset.036, %sh_prom
  %7 = load i64, ptr %refcount_table_size, align 8
  %cmp17.not = icmp ult i64 %shr, %7
  br i1 %cmp17.not, label %if.end27, label %if.then19

if.then19:                                        ; preds = %for.body
  %add20 = add i64 %shr, 1
  %call21 = tail call fastcc i32 @realloc_refcount_array(ptr noundef nonnull %0, ptr noundef %refcount_table, ptr noundef nonnull %refcount_table_size, i64 noundef %add20)
  %cmp22 = icmp slt i32 %call21, 0
  br i1 %cmp22, label %if.then24, label %if.end27

if.then24:                                        ; preds = %if.then19
  %check_errors = getelementptr inbounds nuw i8, ptr %res, i64 8
  %8 = load i32, ptr %check_errors, align 8
  %inc25 = add i32 %8, 1
  store i32 %inc25, ptr %check_errors, align 8
  br label %return

if.end27:                                         ; preds = %if.then19, %for.body
  %9 = load ptr, ptr %get_refcount, align 8
  %10 = load ptr, ptr %refcount_table, align 8
  %call28 = tail call i64 %9(ptr noundef %10, i64 noundef %shr) #17
  %11 = load i64, ptr %refcount_max, align 8
  %cmp29 = icmp eq i64 %call28, %11
  br i1 %cmp29, label %if.then31, label %if.end36

if.then31:                                        ; preds = %if.end27
  %12 = load ptr, ptr @stderr, align 8
  %call32 = tail call i32 (ptr, ptr, ...) @fprintf(ptr noundef %12, ptr noundef nonnull @.str.24, i64 noundef %cluster_offset.036) #19
  %13 = load ptr, ptr @stderr, align 8
  %14 = tail call i64 @fwrite(ptr nonnull @.str.25, i64 141, i64 1, ptr %13) #19
  %15 = load i32, ptr %res, align 8
  %inc35 = add i32 %15, 1
  store i32 %inc35, ptr %res, align 8
  br label %for.inc

if.end36:                                         ; preds = %if.end27
  %16 = load ptr, ptr %set_refcount, align 8
  %17 = load ptr, ptr %refcount_table, align 8
  %add37 = add i64 %call28, 1
  tail call void %16(ptr noundef %17, i64 noundef %shr, i64 noundef %add37) #17
  br label %for.inc

for.inc:                                          ; preds = %if.end36, %if.then31
  %18 = load i32, ptr %cluster_size, align 4
  %conv39 = sext i32 %18 to i64
  %add40 = add i64 %cluster_offset.036, %conv39
  %cmp15.not = icmp ugt i64 %add40, %and.i34
  br i1 %cmp15.not, label %return, label %for.body, !llvm.loop !26

return:                                           ; preds = %for.inc, %if.end10, %entry, %if.then24, %if.then8, %if.then3
  %retval.0 = phi i32 [ %conv, %if.then3 ], [ 0, %if.then8 ], [ %call21, %if.then24 ], [ 0, %entry ], [ 0, %if.end10 ], [ 0, %for.inc ]
  ret i32 %retval.0
}